target datalayout = "e-m:e-p270:32:32-p271:32:32-p272:64:64-i64:64-i128:128-f80:128-n8:16:32:64-S128"
target triple = "x86_64-pc-linux-gnu"

%struct.rb_data_type_struct = type { ptr, %struct.anon.2, ptr, ptr, i64 }
%struct.anon.2 = type { ptr, ptr, ptr, ptr, [1 x ptr] }
%struct.zstream = type { i64, i64, i64, i64, %struct.z_stream_s, ptr }
%struct.z_stream_s = type { ptr, i32, i64, ptr, i32, i64, ptr, ptr, ptr, ptr, ptr, i32, i64, i64 }
%struct.zstream_run_args = type { ptr, ptr, i64, i32, i32, i32, i32 }

@cZError = internal global i64 0, align 8
@zstream_data_type = internal constant %struct.rb_data_type_struct { ptr @.str.147, %struct.anon.2 { ptr @zstream_mark, ptr @zstream_free, ptr @zstream_memsize, ptr null, [1 x ptr] zeroinitializer }, ptr null, ptr null, i64 1 }, align 8
@.str.150 = private unnamed_addr constant [20 x i8] c"stream is not ready\00", align 1
@.str.154 = private unnamed_addr constant [1 x i8] zeroinitializer, align 1

; Function Attrs: nounwind sspstrong uwtable
define internal void @zstream_run(ptr noundef %0, ptr noundef %1, i64 noundef %2, i32 noundef %3) #0 {
  %5 = alloca ptr, align 8
  %6 = alloca ptr, align 8
  %7 = alloca i64, align 8
  %8 = alloca i32, align 4
  %9 = alloca %struct.zstream_run_args, align 8
  store ptr %0, ptr %5, align 8, !tbaa !21
  store ptr %1, ptr %6, align 8, !tbaa !19
  store i64 %2, ptr %7, align 8, !tbaa !6
  store i32 %3, ptr %8, align 4, !tbaa !10
  call void @llvm.lifetime.start.p0(i64 40, ptr %9) #23
  %10 = getelementptr inbounds nuw %struct.zstream_run_args, ptr %9, i32 0, i32 0
  %11 = load ptr, ptr %5, align 8, !tbaa !21
  store ptr %11, ptr %10, align 8, !tbaa !99
  %12 = getelementptr inbounds nuw %struct.zstream_run_args, ptr %9, i32 0, i32 1
  %13 = load ptr, ptr %6, align 8, !tbaa !19
  store ptr %13, ptr %12, align 8, !tbaa !101
  %14 = getelementptr inbounds nuw %struct.zstream_run_args, ptr %9, i32 0, i32 2
  %15 = load i64, ptr %7, align 8, !tbaa !6
  store i64 %15, ptr %14, align 8, !tbaa !102
  %16 = getelementptr inbounds nuw %struct.zstream_run_args, ptr %9, i32 0, i32 3
  %17 = load i32, ptr %8, align 4, !tbaa !10
  store i32 %17, ptr %16, align 8, !tbaa !103
  %18 = getelementptr inbounds nuw %struct.zstream_run_args, ptr %9, i32 0, i32 4
  store i32 0, ptr %18, align 4, !tbaa !104
  %19 = getelementptr inbounds nuw %struct.zstream_run_args, ptr %9, i32 0, i32 5
  store i32 0, ptr %19, align 8, !tbaa !105
  %20 = getelementptr inbounds nuw %struct.zstream_run_args, ptr %9, i32 0, i32 6
  %21 = load ptr, ptr %5, align 8, !tbaa !21
  %22 = getelementptr inbounds nuw %struct.zstream, ptr %21, i32 0, i32 0
  %23 = load i64, ptr %22, align 8, !tbaa !33
  %24 = and i64 %23, 16
  %25 = icmp ne i64 %24, 0
  br i1 %25, label %29, label %26

26:                                               ; preds = %4
  %27 = call i32 @rb_block_given_p()
  %28 = icmp ne i32 %27, 0
  br label %29

29:                                               ; preds = %26, %4
  %30 = phi i1 [ false, %4 ], [ %28, %26 ]
  %31 = zext i1 %30 to i32
  store i32 %31, ptr %20, align 4, !tbaa !106
  %32 = ptrtoint ptr %9 to i64
  %33 = ptrtoint ptr %9 to i64
  %34 = call i64 @rb_ensure(ptr noundef @zstream_run_try, i64 noundef %32, ptr noundef @zstream_run_ensure, i64 noundef %33)
  %35 = getelementptr inbounds nuw %struct.zstream_run_args, ptr %9, i32 0, i32 5
  %36 = load i32, ptr %35, align 8, !tbaa !105
  %37 = icmp ne i32 %36, 0
  br i1 %37, label %38, label %41

38:                                               ; preds = %29
  %39 = getelementptr inbounds nuw %struct.zstream_run_args, ptr %9, i32 0, i32 5
  %40 = load i32, ptr %39, align 8, !tbaa !105
  call void @rb_jump_tag(i32 noundef %40) #26
  unreachable

41:                                               ; preds = %29
  call void @llvm.lifetime.end.p0(i64 40, ptr %9) #23
  ret void
}

; Function Attrs: nounwind sspstrong uwtable
define internal ptr @get_zstream(i64 noundef %0) #0 {
  %2 = alloca i64, align 8
  %3 = alloca ptr, align 8
  store i64 %0, ptr %2, align 8, !tbaa !6
  call void @llvm.lifetime.start.p0(i64 8, ptr %3) #23
  %4 = load i64, ptr %2, align 8, !tbaa !6
  %5 = call ptr @rb_check_typeddata(i64 noundef %4, ptr noundef @zstream_data_type)
  store ptr %5, ptr %3, align 8, !tbaa !21
  %6 = load ptr, ptr %3, align 8, !tbaa !21
  %7 = getelementptr inbounds nuw %struct.zstream, ptr %6, i32 0, i32 0
  %8 = load i64, ptr %7, align 8, !tbaa !33
  %9 = and i64 %8, 1
  %10 = icmp ne i64 %9, 0
  br i1 %10, label %13, label %11

11:                                               ; preds = %1
  %12 = load i64, ptr @cZError, align 8, !tbaa !6
  call void (i64, ptr, ...) @rb_raise(i64 noundef %12, ptr noundef @.str.150) #26
  unreachable

13:                                               ; preds = %1
  %14 = load ptr, ptr %3, align 8, !tbaa !21
  call void @llvm.lifetime.end.p0(i64 8, ptr %3) #23
  ret ptr %14
}

; Function Attrs: nounwind sspstrong uwtable
define internal i64 @rb_zstream_finish(i64 noundef %0) #0 {
  %2 = alloca i64, align 8
  %3 = alloca ptr, align 8
  store i64 %0, ptr %2, align 8, !tbaa !6
  call void @llvm.lifetime.start.p0(i64 8, ptr %3) #23
  %4 = load i64, ptr %2, align 8, !tbaa !6
  %5 = call ptr @get_zstream(i64 noundef %4)
  store ptr %5, ptr %3, align 8, !tbaa !21
  %6 = load ptr, ptr %3, align 8, !tbaa !21
  call void @zstream_run(ptr noundef %6, ptr noundef @.str.154, i64 noundef 0, i32 noundef 4)
  %7 = load ptr, ptr %3, align 8, !tbaa !21
  %8 = call i64 @zstream_detach_buffer(ptr noundef %7)
  call void @llvm.lifetime.end.p0(i64 8, ptr %3) #23
  ret i64 %8
}