; Function Attrs: nounwind sspstrong uwtable
define internal i64 @rb_zstream_finish(i64 noundef %0) #0 {
  %2 = alloca %struct.zstream_run_args, align 8
  %3 = tail call ptr @rb_check_typeddata(i64 noundef %0, ptr noundef nonnull @zstream_data_type) #18
  %4 = load i64, ptr %3, align 8, !tbaa !42
  %5 = and i64 %4, 1
  %.not.i = icmp eq i64 %5, 0
  br i1 %.not.i, label %6, label %get_zstream.exit

6:                                                ; preds = %1
  %7 = load i64, ptr @cZError, align 8, !tbaa !6
  tail call void (i64, ptr, ...) @rb_raise(i64 noundef %7, ptr noundef nonnull @.str.150) #19
  unreachable

get_zstream.exit:                                 ; preds = %1
  call void @llvm.lifetime.start.p0(i64 40, ptr nonnull %2) #18
  store ptr %3, ptr %2, align 8, !tbaa !61
  %8 = getelementptr inbounds nuw i8, ptr %2, i64 8
  store ptr @.str.154, ptr %8, align 8, !tbaa !64
  %9 = getelementptr inbounds nuw i8, ptr %2, i64 16
  store i64 0, ptr %9, align 8, !tbaa !65
  %10 = getelementptr inbounds nuw i8, ptr %2, i64 24
  store i32 4, ptr %10, align 8, !tbaa !66
  %11 = getelementptr inbounds nuw i8, ptr %2, i64 28
  store i32 0, ptr %11, align 4, !tbaa !67
  %12 = getelementptr inbounds nuw i8, ptr %2, i64 32
  store i32 0, ptr %12, align 8, !tbaa !68
  %13 = getelementptr inbounds nuw i8, ptr %2, i64 36
  %14 = and i64 %4, 16
  %.not.i2 = icmp eq i64 %14, 0
  br i1 %.not.i2, label %15, label %19

15:                                               ; preds = %get_zstream.exit
  %16 = tail call i32 @rb_block_given_p() #18
  %17 = icmp ne i32 %16, 0
  %18 = zext i1 %17 to i32
  br label %19

19:                                               ; preds = %15, %get_zstream.exit
  %20 = phi i32 [ 0, %get_zstream.exit ], [ %18, %15 ]
  store i32 %20, ptr %13, align 4, !tbaa !69
  %21 = ptrtoint ptr %2 to i64
  %22 = call i64 @rb_ensure(ptr noundef nonnull @zstream_run_try, i64 noundef %21, ptr noundef nonnull @zstream_run_ensure, i64 noundef %21) #18
  %23 = load i32, ptr %12, align 8, !tbaa !68
  %.not4.i = icmp eq i32 %23, 0
  br i1 %.not4.i, label %zstream_run.exit, label %24

24:                                               ; preds = %19
  call void @rb_jump_tag(i32 noundef %23) #19
  unreachable

zstream_run.exit:                                 ; preds = %19
  call void @llvm.lifetime.end.p0(i64 40, ptr nonnull %2) #18
  %25 = call fastcc i64 @zstream_detach_buffer(ptr noundef nonnull %3)
  ret i64 %25
}